; Function Attrs: mustprogress nounwind uwtable
define dso_local void @_ZN5clang6Parser23DeallocateParsedClassesEPNS0_12ParsingClassE(ptr nocapture noundef nonnull readnone align 8 dereferenceable(2936) %0, ptr noundef %1) local_unnamed_addr #0 align 2 {
  %3 = getelementptr inbounds nuw i8, ptr %1, i64 16
  %4 = tail call noundef i64 @_ZNK4llvm15SmallVectorBaseIjE4sizeEv(ptr noundef nonnull align 8 dereferenceable(16) %3) #19
  %5 = and i64 %4, 4294967295
  %.not8 = icmp eq i64 %5, 0
  br i1 %.not8, label %._crit_edge, label %.lr.ph.preheader

.lr.ph.preheader:                                 ; preds = %2
  %6 = and i64 %4, 4294967295
  br label %.lr.ph

.lr.ph:                                           ; preds = %.lr.ph.preheader, %15
  %indvars.iv = phi i64 [ 0, %.lr.ph.preheader ], [ %indvars.iv.next, %15 ]
  %7 = load ptr, ptr %3, align 8
  %8 = getelementptr inbounds ptr, ptr %7, i64 %indvars.iv
  %9 = load ptr, ptr %8, align 8
  %10 = icmp eq ptr %9, null
  br i1 %10, label %15, label %11

11:                                               ; preds = %.lr.ph
  %12 = load ptr, ptr %9, align 8
  %13 = getelementptr inbounds i8, ptr %12, i64 8
  %14 = load ptr, ptr %13, align 8
  tail call void %14(ptr noundef nonnull align 8 dereferenceable(8) %9) #19
  br label %15

15:                                               ; preds = %.lr.ph, %11
  %indvars.iv.next = add nuw nsw i64 %indvars.iv, 1
  %.not = icmp eq i64 %indvars.iv.next, %6
  br i1 %.not, label %._crit_edge.thread, label %.lr.ph, !llvm.loop !261

._crit_edge:                                      ; preds = %2
  %16 = icmp eq ptr %1, null
  br i1 %16, label %22, label %._crit_edge.thread

._crit_edge.thread:                               ; preds = %15, %._crit_edge
  %17 = tail call noundef i64 @_ZNK4llvm15SmallVectorBaseIjE4sizeEv(ptr noundef nonnull align 8 dereferenceable(16) %3) #19
  %18 = load ptr, ptr %3, align 8
  %19 = getelementptr inbounds i8, ptr %1, i64 32
  %20 = icmp eq ptr %18, %19
  br i1 %20, label %_ZN5clang6Parser12ParsingClassD2Ev.exit, label %21

21:                                               ; preds = %._crit_edge.thread
  tail call void @free(ptr noundef %18) #19
  br label %_ZN5clang6Parser12ParsingClassD2Ev.exit

_ZN5clang6Parser12ParsingClassD2Ev.exit:          ; preds = %._crit_edge.thread, %21
  tail call void @_ZdlPvm(ptr noundef nonnull %1, i64 noundef 48) #20
  br label %22

22:                                               ; preds = %_ZN5clang6Parser12ParsingClassD2Ev.exit, %._crit_edge
  ret void
}